target datalayout = "e-m:e-p270:32:32-p271:32:32-p272:64:64-i64:64-i128:128-f80:128-n8:16:32:64-S128"
target triple = "x86_64-pc-linux-gnu"

%struct.Fraig_ManStruct_t_ = type { ptr, ptr, ptr, ptr, ptr, ptr, ptr, ptr, ptr, i32, i32, i32, i32, i32, i32, i32, i32, i32, i32, i32, i32, i64, i32, i32, i32, i32, i32, ptr, ptr, ptr, ptr, ptr, i32, ptr, ptr, ptr, ptr, ptr, ptr, i32, ptr, ptr, ptr, ptr, i32, i32, i32, i32, i32, i32, i32, i32, i32, i32, i32, i32, i32, i32, i32, i32, i32, i32, i32, i64, i64, i64, i64, i64, i64, i64, i64, i64, i64, i64, i64 }
%struct.Fraig_NodeVecStruct_t_ = type { i32, i32, ptr }
%struct.Fraig_NodeStruct_t_ = type { i32, i32, i32, i32, i32, i32, i32, ptr, ptr, ptr, ptr, ptr, ptr, ptr, ptr, i32, i32, ptr, ptr, ptr, ptr, ptr, ptr, ptr }
%struct.timespec = type { i64, i64 }

@s_FraigPrimes = external global [1024 x i32], align 16

; Function Attrs: inlinehint nounwind uwtable
define internal i64 @Abc_Clock() #4 {
  %1 = alloca i64, align 8
  %2 = alloca %struct.timespec, align 8
  %3 = alloca i32, align 4
  %4 = alloca i64, align 8
  call void @llvm.lifetime.start.p0(i64 16, ptr %2) #6
  %5 = call i32 @clock_gettime(i32 noundef 1, ptr noundef %2) #6
  %6 = icmp slt i32 %5, 0
  br i1 %6, label %7, label %8

7:                                                ; preds = %0
  store i64 -1, ptr %1, align 8
  store i32 1, ptr %3, align 4
  br label %19

8:                                                ; preds = %0
  call void @llvm.lifetime.start.p0(i64 8, ptr %4) #6
  %9 = getelementptr inbounds nuw %struct.timespec, ptr %2, i32 0, i32 0
  %10 = load i64, ptr %9, align 8, !tbaa !58
  %11 = mul nsw i64 %10, 1000000
  store i64 %11, ptr %4, align 8, !tbaa !38
  %12 = getelementptr inbounds nuw %struct.timespec, ptr %2, i32 0, i32 1
  %13 = load i64, ptr %12, align 8, !tbaa !60
  %14 = mul nsw i64 %13, 1000000
  %15 = sdiv i64 %14, 1000000000
  %16 = load i64, ptr %4, align 8, !tbaa !38
  %17 = add nsw i64 %16, %15
  store i64 %17, ptr %4, align 8, !tbaa !38
  %18 = load i64, ptr %4, align 8, !tbaa !38
  store i64 %18, ptr %1, align 8
  store i32 1, ptr %3, align 4
  call void @llvm.lifetime.end.p0(i64 8, ptr %4) #6
  br label %19

19:                                               ; preds = %8, %7
  call void @llvm.lifetime.end.p0(i64 16, ptr %2) #6
  %20 = load i64, ptr %1, align 8
  ret i64 %20
}

; Function Attrs: nounwind uwtable
define ptr @Fraig_NodeCreatePi(ptr noundef %0) #0 {
  %2 = alloca ptr, align 8
  %3 = alloca ptr, align 8
  %4 = alloca ptr, align 8
  %5 = alloca i32, align 4
  %6 = alloca i64, align 8
  store ptr %0, ptr %2, align 8, !tbaa !3
  call void @llvm.lifetime.start.p0(i64 8, ptr %3) #6
  call void @llvm.lifetime.start.p0(i64 8, ptr %4) #6
  call void @llvm.lifetime.start.p0(i64 4, ptr %5) #6
  call void @llvm.lifetime.start.p0(i64 8, ptr %6) #6
  %7 = load ptr, ptr %2, align 8, !tbaa !3
  %8 = getelementptr inbounds nuw %struct.Fraig_ManStruct_t_, ptr %7, i32 0, i32 35
  %9 = load ptr, ptr %8, align 8, !tbaa !8
  %10 = call ptr @Fraig_MemFixedEntryFetch(ptr noundef %9)
  store ptr %10, ptr %3, align 8, !tbaa !22
  %11 = load ptr, ptr %3, align 8, !tbaa !22
  call void @llvm.memset.p0.i64(ptr align 8 %11, i8 0, i64 160, i1 false)
  %12 = load ptr, ptr %2, align 8, !tbaa !3
  %13 = getelementptr inbounds nuw %struct.Fraig_ManStruct_t_, ptr %12, i32 0, i32 36
  %14 = load ptr, ptr %13, align 8, !tbaa !32
  %15 = call ptr @Fraig_MemFixedEntryFetch(ptr noundef %14)
  %16 = load ptr, ptr %3, align 8, !tbaa !22
  %17 = getelementptr inbounds nuw %struct.Fraig_NodeStruct_t_, ptr %16, i32 0, i32 17
  store ptr %15, ptr %17, align 8, !tbaa !33
  %18 = load ptr, ptr %3, align 8, !tbaa !22
  %19 = getelementptr inbounds nuw %struct.Fraig_NodeStruct_t_, ptr %18, i32 0, i32 17
  %20 = load ptr, ptr %19, align 8, !tbaa !33
  %21 = load ptr, ptr %2, align 8, !tbaa !3
  %22 = getelementptr inbounds nuw %struct.Fraig_ManStruct_t_, ptr %21, i32 0, i32 9
  %23 = load i32, ptr %22, align 8, !tbaa !34
  %24 = sext i32 %23 to i64
  %25 = getelementptr inbounds i32, ptr %20, i64 %24
  %26 = load ptr, ptr %3, align 8, !tbaa !22
  %27 = getelementptr inbounds nuw %struct.Fraig_NodeStruct_t_, ptr %26, i32 0, i32 18
  store ptr %25, ptr %27, align 8, !tbaa !35
  %28 = load ptr, ptr %3, align 8, !tbaa !22
  %29 = getelementptr inbounds nuw %struct.Fraig_NodeStruct_t_, ptr %28, i32 0, i32 18
  %30 = load ptr, ptr %29, align 8, !tbaa !35
  %31 = load ptr, ptr %2, align 8, !tbaa !3
  %32 = getelementptr inbounds nuw %struct.Fraig_ManStruct_t_, ptr %31, i32 0, i32 10
  %33 = load i32, ptr %32, align 4, !tbaa !36
  %34 = sext i32 %33 to i64
  %35 = mul i64 4, %34
  call void @llvm.memset.p0.i64(ptr align 4 %30, i8 0, i64 %35, i1 false)
  %36 = load ptr, ptr %2, align 8, !tbaa !3
  %37 = getelementptr inbounds nuw %struct.Fraig_ManStruct_t_, ptr %36, i32 0, i32 1
  %38 = load ptr, ptr %37, align 8, !tbaa !23
  %39 = getelementptr inbounds nuw %struct.Fraig_NodeVecStruct_t_, ptr %38, i32 0, i32 1
  %40 = load i32, ptr %39, align 4, !tbaa !24
  %41 = load ptr, ptr %3, align 8, !tbaa !22
  %42 = getelementptr inbounds nuw %struct.Fraig_NodeStruct_t_, ptr %41, i32 0, i32 0
  store i32 %40, ptr %42, align 8, !tbaa !27
  %43 = load ptr, ptr %2, align 8, !tbaa !3
  %44 = getelementptr inbounds nuw %struct.Fraig_ManStruct_t_, ptr %43, i32 0, i32 1
  %45 = load ptr, ptr %44, align 8, !tbaa !23
  %46 = load ptr, ptr %3, align 8, !tbaa !22
  call void @Fraig_NodeVecPush(ptr noundef %45, ptr noundef %46)
  %47 = load ptr, ptr %2, align 8, !tbaa !3
  %48 = getelementptr inbounds nuw %struct.Fraig_ManStruct_t_, ptr %47, i32 0, i32 0
  %49 = load ptr, ptr %48, align 8, !tbaa !37
  %50 = getelementptr inbounds nuw %struct.Fraig_NodeVecStruct_t_, ptr %49, i32 0, i32 1
  %51 = load i32, ptr %50, align 4, !tbaa !24
  %52 = load ptr, ptr %3, align 8, !tbaa !22
  %53 = getelementptr inbounds nuw %struct.Fraig_NodeStruct_t_, ptr %52, i32 0, i32 1
  store i32 %51, ptr %53, align 4, !tbaa !29
  %54 = load ptr, ptr %2, align 8, !tbaa !3
  %55 = getelementptr inbounds nuw %struct.Fraig_ManStruct_t_, ptr %54, i32 0, i32 0
  %56 = load ptr, ptr %55, align 8, !tbaa !37
  %57 = load ptr, ptr %3, align 8, !tbaa !22
  call void @Fraig_NodeVecPush(ptr noundef %56, ptr noundef %57)
  %58 = load ptr, ptr %3, align 8, !tbaa !22
  %59 = getelementptr inbounds nuw %struct.Fraig_NodeStruct_t_, ptr %58, i32 0, i32 2
  store i32 0, ptr %59, align 8, !tbaa !30
  %60 = load ptr, ptr %3, align 8, !tbaa !22
  %61 = getelementptr inbounds nuw %struct.Fraig_NodeStruct_t_, ptr %60, i32 0, i32 3
  store i32 1, ptr %61, align 4, !tbaa !31
  %62 = load ptr, ptr %3, align 8, !tbaa !22
  %63 = getelementptr inbounds nuw %struct.Fraig_NodeStruct_t_, ptr %62, i32 0, i32 6
  %64 = load i32, ptr %63, align 8
  %65 = and i32 %64, -2
  %66 = or i32 %65, 0
  store i32 %66, ptr %63, align 8
  %67 = call i64 @Abc_Clock()
  store i64 %67, ptr %6, align 8, !tbaa !38
  %68 = load ptr, ptr %3, align 8, !tbaa !22
  %69 = getelementptr inbounds nuw %struct.Fraig_NodeStruct_t_, ptr %68, i32 0, i32 15
  store i32 0, ptr %69, align 8, !tbaa !39
  store i32 0, ptr %5, align 4, !tbaa !40
  br label %70

70:                                               ; preds = %112, %1
  %71 = load i32, ptr %5, align 4, !tbaa !40
  %72 = load ptr, ptr %2, align 8, !tbaa !3
  %73 = getelementptr inbounds nuw %struct.Fraig_ManStruct_t_, ptr %72, i32 0, i32 9
  %74 = load i32, ptr %73, align 8, !tbaa !34
  %75 = icmp slt i32 %71, %74
  br i1 %75, label %76, label %115

76:                                               ; preds = %70
  %77 = call i32 @Aig_ManRandom(i32 noundef 0)
  %78 = load ptr, ptr %3, align 8, !tbaa !22
  %79 = getelementptr inbounds nuw %struct.Fraig_NodeStruct_t_, ptr %78, i32 0, i32 17
  %80 = load ptr, ptr %79, align 8, !tbaa !33
  %81 = load i32, ptr %5, align 4, !tbaa !40
  %82 = sext i32 %81 to i64
  %83 = getelementptr inbounds i32, ptr %80, i64 %82
  store i32 %77, ptr %83, align 4, !tbaa !40
  %84 = load i32, ptr %5, align 4, !tbaa !40
  %85 = icmp eq i32 %84, 0
  br i1 %85, label %86, label %95

86:                                               ; preds = %76
  %87 = load ptr, ptr %3, align 8, !tbaa !22
  %88 = getelementptr inbounds nuw %struct.Fraig_NodeStruct_t_, ptr %87, i32 0, i32 17
  %89 = load ptr, ptr %88, align 8, !tbaa !33
  %90 = load i32, ptr %5, align 4, !tbaa !40
  %91 = sext i32 %90 to i64
  %92 = getelementptr inbounds i32, ptr %89, i64 %91
  %93 = load i32, ptr %92, align 4, !tbaa !40
  %94 = shl i32 %93, 1
  store i32 %94, ptr %92, align 4, !tbaa !40
  br label %95

95:                                               ; preds = %86, %76
  %96 = load ptr, ptr %3, align 8, !tbaa !22
  %97 = getelementptr inbounds nuw %struct.Fraig_NodeStruct_t_, ptr %96, i32 0, i32 17
  %98 = load ptr, ptr %97, align 8, !tbaa !33
  %99 = load i32, ptr %5, align 4, !tbaa !40
  %100 = sext i32 %99 to i64
  %101 = getelementptr inbounds i32, ptr %98, i64 %100
  %102 = load i32, ptr %101, align 4, !tbaa !40
  %103 = load i32, ptr %5, align 4, !tbaa !40
  %104 = sext i32 %103 to i64
  %105 = getelementptr inbounds [1024 x i32], ptr @s_FraigPrimes, i64 0, i64 %104
  %106 = load i32, ptr %105, align 4, !tbaa !40
  %107 = mul i32 %102, %106
  %108 = load ptr, ptr %3, align 8, !tbaa !22
  %109 = getelementptr inbounds nuw %struct.Fraig_NodeStruct_t_, ptr %108, i32 0, i32 15
  %110 = load i32, ptr %109, align 8, !tbaa !39
  %111 = xor i32 %110, %107
  store i32 %111, ptr %109, align 8, !tbaa !39
  br label %112

112:                                              ; preds = %95
  %113 = load i32, ptr %5, align 4, !tbaa !40
  %114 = add nsw i32 %113, 1
  store i32 %114, ptr %5, align 4, !tbaa !40
  br label %70, !llvm.loop !41

115:                                              ; preds = %70
  %116 = load ptr, ptr %3, align 8, !tbaa !22
  %117 = getelementptr inbounds nuw %struct.Fraig_NodeStruct_t_, ptr %116, i32 0, i32 17
  %118 = load ptr, ptr %117, align 8, !tbaa !33
  %119 = load ptr, ptr %2, align 8, !tbaa !3
  %120 = getelementptr inbounds nuw %struct.Fraig_ManStruct_t_, ptr %119, i32 0, i32 9
  %121 = load i32, ptr %120, align 8, !tbaa !34
  %122 = call i32 @Fraig_BitStringCountOnes(ptr noundef %118, i32 noundef %121)
  %123 = load ptr, ptr %3, align 8, !tbaa !22
  %124 = getelementptr inbounds nuw %struct.Fraig_NodeStruct_t_, ptr %123, i32 0, i32 6
  %125 = load i32, ptr %124, align 8
  %126 = and i32 %122, 1048575
  %127 = shl i32 %126, 12
  %128 = and i32 %125, 4095
  %129 = or i32 %128, %127
  store i32 %129, ptr %124, align 8
  %130 = load ptr, ptr %3, align 8, !tbaa !22
  %131 = getelementptr inbounds nuw %struct.Fraig_NodeStruct_t_, ptr %130, i32 0, i32 16
  store i32 0, ptr %131, align 4, !tbaa !43
  store i32 0, ptr %5, align 4, !tbaa !40
  br label %132

132:                                              ; preds = %162, %115
  %133 = load i32, ptr %5, align 4, !tbaa !40
  %134 = load ptr, ptr %2, align 8, !tbaa !3
  %135 = getelementptr inbounds nuw %struct.Fraig_ManStruct_t_, ptr %134, i32 0, i32 24
  %136 = load i32, ptr %135, align 8, !tbaa !44
  %137 = icmp slt i32 %133, %136
  br i1 %137, label %138, label %165

138:                                              ; preds = %132
  %139 = call i32 @Aig_ManRandom(i32 noundef 0)
  %140 = load ptr, ptr %3, align 8, !tbaa !22
  %141 = getelementptr inbounds nuw %struct.Fraig_NodeStruct_t_, ptr %140, i32 0, i32 18
  %142 = load ptr, ptr %141, align 8, !tbaa !35
  %143 = load i32, ptr %5, align 4, !tbaa !40
  %144 = sext i32 %143 to i64
  %145 = getelementptr inbounds i32, ptr %142, i64 %144
  store i32 %139, ptr %145, align 4, !tbaa !40
  %146 = load ptr, ptr %3, align 8, !tbaa !22
  %147 = getelementptr inbounds nuw %struct.Fraig_NodeStruct_t_, ptr %146, i32 0, i32 18
  %148 = load ptr, ptr %147, align 8, !tbaa !35
  %149 = load i32, ptr %5, align 4, !tbaa !40
  %150 = sext i32 %149 to i64
  %151 = getelementptr inbounds i32, ptr %148, i64 %150
  %152 = load i32, ptr %151, align 4, !tbaa !40
  %153 = load i32, ptr %5, align 4, !tbaa !40
  %154 = sext i32 %153 to i64
  %155 = getelementptr inbounds [1024 x i32], ptr @s_FraigPrimes, i64 0, i64 %154
  %156 = load i32, ptr %155, align 4, !tbaa !40
  %157 = mul i32 %152, %156
  %158 = load ptr, ptr %3, align 8, !tbaa !22
  %159 = getelementptr inbounds nuw %struct.Fraig_NodeStruct_t_, ptr %158, i32 0, i32 16
  %160 = load i32, ptr %159, align 4, !tbaa !43
  %161 = xor i32 %160, %157
  store i32 %161, ptr %159, align 4, !tbaa !43
  br label %162

162:                                              ; preds = %138
  %163 = load i32, ptr %5, align 4, !tbaa !40
  %164 = add nsw i32 %163, 1
  store i32 %164, ptr %5, align 4, !tbaa !40
  br label %132, !llvm.loop !45

165:                                              ; preds = %132
  %166 = call i64 @Abc_Clock()
  %167 = load i64, ptr %6, align 8, !tbaa !38
  %168 = sub nsw i64 %166, %167
  %169 = load ptr, ptr %2, align 8, !tbaa !3
  %170 = getelementptr inbounds nuw %struct.Fraig_ManStruct_t_, ptr %169, i32 0, i32 64
  %171 = load i64, ptr %170, align 8, !tbaa !46
  %172 = add nsw i64 %171, %168
  store i64 %172, ptr %170, align 8, !tbaa !46
  %173 = load ptr, ptr %2, align 8, !tbaa !3
  %174 = load ptr, ptr %3, align 8, !tbaa !22
  %175 = call ptr @Fraig_HashTableLookupF(ptr noundef %173, ptr noundef %174)
  store ptr %175, ptr %4, align 8, !tbaa !22
  %176 = load ptr, ptr %3, align 8, !tbaa !22
  call void @llvm.lifetime.end.p0(i64 8, ptr %6) #6
  call void @llvm.lifetime.end.p0(i64 4, ptr %5) #6
  call void @llvm.lifetime.end.p0(i64 8, ptr %4) #6
  call void @llvm.lifetime.end.p0(i64 8, ptr %3) #6
  ret ptr %176
}