; Function Attrs: nounwind uwtable
define noundef ptr @Fraig_NodeCreatePi(ptr noundef %0) local_unnamed_addr #0 {
  %2 = alloca %struct.timespec, align 8
  %3 = alloca %struct.timespec, align 8
  %4 = getelementptr inbounds nuw i8, ptr %0, i64 216
  %5 = load ptr, ptr %4, align 8, !tbaa !3
  %6 = tail call ptr @Fraig_MemFixedEntryFetch(ptr noundef %5) #7
  tail call void @llvm.memset.p0.i64(ptr noundef nonnull align 8 dereferenceable(160) %6, i8 0, i64 160, i1 false)
  %7 = getelementptr inbounds nuw i8, ptr %0, i64 224
  %8 = load ptr, ptr %7, align 8, !tbaa !29
  %9 = tail call ptr @Fraig_MemFixedEntryFetch(ptr noundef %8) #7
  %10 = getelementptr inbounds nuw i8, ptr %6, i64 104
  store ptr %9, ptr %10, align 8, !tbaa !30
  %11 = getelementptr inbounds nuw i8, ptr %0, i64 72
  %12 = load i32, ptr %11, align 8, !tbaa !31
  %13 = sext i32 %12 to i64
  %14 = getelementptr inbounds i32, ptr %9, i64 %13
  %15 = getelementptr inbounds nuw i8, ptr %6, i64 112
  store ptr %14, ptr %15, align 8, !tbaa !32
  %16 = getelementptr inbounds nuw i8, ptr %0, i64 76
  %17 = load i32, ptr %16, align 4, !tbaa !33
  %18 = sext i32 %17 to i64
  %19 = shl nsw i64 %18, 2
  tail call void @llvm.memset.p0.i64(ptr align 4 %14, i8 0, i64 %19, i1 false)
  %20 = getelementptr inbounds nuw i8, ptr %0, i64 8
  %21 = load ptr, ptr %20, align 8, !tbaa !20
  %22 = getelementptr inbounds nuw i8, ptr %21, i64 4
  %23 = load i32, ptr %22, align 4, !tbaa !21
  store i32 %23, ptr %6, align 8, !tbaa !24
  tail call void @Fraig_NodeVecPush(ptr noundef %21, ptr noundef nonnull %6) #7
  %24 = load ptr, ptr %0, align 8, !tbaa !34
  %25 = getelementptr inbounds nuw i8, ptr %24, i64 4
  %26 = load i32, ptr %25, align 4, !tbaa !21
  %27 = getelementptr inbounds nuw i8, ptr %6, i64 4
  store i32 %26, ptr %27, align 4, !tbaa !26
  tail call void @Fraig_NodeVecPush(ptr noundef %24, ptr noundef nonnull %6) #7
  %28 = getelementptr inbounds nuw i8, ptr %6, i64 8
  store i32 0, ptr %28, align 8, !tbaa !27
  %29 = getelementptr inbounds nuw i8, ptr %6, i64 12
  store i32 1, ptr %29, align 4, !tbaa !28
  %30 = getelementptr inbounds nuw i8, ptr %6, i64 24
  %31 = load i32, ptr %30, align 8
  %32 = and i32 %31, -2
  store i32 %32, ptr %30, align 8
  call void @llvm.lifetime.start.p0(i64 16, ptr nonnull %3) #7
  %33 = call i32 @clock_gettime(i32 noundef 1, ptr noundef nonnull %3) #7
  %34 = icmp slt i32 %33, 0
  br i1 %34, label %Abc_Clock.exit, label %35

35:                                               ; preds = %1
  %36 = load i64, ptr %3, align 8, !tbaa !35
  %.neg53 = mul i64 %36, -1000000
  %37 = getelementptr inbounds nuw i8, ptr %3, i64 8
  %38 = load i64, ptr %37, align 8, !tbaa !37
  %.neg = sdiv i64 %38, -1000
  %.neg54 = add i64 %.neg, %.neg53
  br label %Abc_Clock.exit

Abc_Clock.exit:                                   ; preds = %1, %35
  %.0.i.neg = phi i64 [ %.neg54, %35 ], [ 1, %1 ]
  call void @llvm.lifetime.end.p0(i64 16, ptr nonnull %3) #7
  %39 = getelementptr inbounds nuw i8, ptr %6, i64 96
  store i32 0, ptr %39, align 8, !tbaa !38
  %40 = load i32, ptr %11, align 8, !tbaa !31
  %41 = icmp sgt i32 %40, 0
  br i1 %41, label %.lr.ph, label %Abc_Clock.exit.._crit_edge_crit_edge

Abc_Clock.exit.._crit_edge_crit_edge:             ; preds = %Abc_Clock.exit
  %.pre = load ptr, ptr %10, align 8, !tbaa !30
  br label %._crit_edge

.lr.ph:                                           ; preds = %Abc_Clock.exit, %.lr.ph
  %indvars.iv = phi i64 [ %indvars.iv.next, %.lr.ph ], [ 0, %Abc_Clock.exit ]
  %42 = call i32 @Aig_ManRandom(i32 noundef 0) #7
  %43 = load ptr, ptr %10, align 8, !tbaa !30
  %44 = getelementptr inbounds nuw i32, ptr %43, i64 %indvars.iv
  %45 = icmp eq i64 %indvars.iv, 0
  %46 = zext i1 %45 to i32
  %spec.select = shl i32 %42, %46
  store i32 %spec.select, ptr %44, align 4, !tbaa !39
  %47 = getelementptr inbounds nuw [1024 x i32], ptr @s_FraigPrimes, i64 0, i64 %indvars.iv
  %48 = load i32, ptr %47, align 4, !tbaa !39
  %49 = mul i32 %48, %spec.select
  %50 = load i32, ptr %39, align 8, !tbaa !38
  %51 = xor i32 %50, %49
  store i32 %51, ptr %39, align 8, !tbaa !38
  %indvars.iv.next = add nuw nsw i64 %indvars.iv, 1
  %52 = load i32, ptr %11, align 8, !tbaa !31
  %53 = sext i32 %52 to i64
  %54 = icmp slt i64 %indvars.iv.next, %53
  br i1 %54, label %.lr.ph, label %._crit_edge, !llvm.loop !40

._crit_edge:                                      ; preds = %.lr.ph, %Abc_Clock.exit.._crit_edge_crit_edge
  %55 = phi ptr [ %.pre, %Abc_Clock.exit.._crit_edge_crit_edge ], [ %43, %.lr.ph ]
  %.lcssa = phi i32 [ %40, %Abc_Clock.exit.._crit_edge_crit_edge ], [ %52, %.lr.ph ]
  %56 = call i32 @Fraig_BitStringCountOnes(ptr noundef %55, i32 noundef %.lcssa) #7
  %57 = load i32, ptr %30, align 8
  %58 = shl i32 %56, 12
  %59 = and i32 %57, 4095
  %60 = or disjoint i32 %59, %58
  store i32 %60, ptr %30, align 8
  %61 = getelementptr inbounds nuw i8, ptr %6, i64 100
  store i32 0, ptr %61, align 4, !tbaa !42
  %62 = getelementptr inbounds nuw i8, ptr %0, i64 136
  %63 = load i32, ptr %62, align 8, !tbaa !43
  %64 = icmp sgt i32 %63, 0
  br i1 %64, label %.lr.ph58, label %._crit_edge59

.lr.ph58:                                         ; preds = %._crit_edge, %.lr.ph58
  %indvars.iv62 = phi i64 [ %indvars.iv.next63, %.lr.ph58 ], [ 0, %._crit_edge ]
  %65 = call i32 @Aig_ManRandom(i32 noundef 0) #7
  %66 = load ptr, ptr %15, align 8, !tbaa !32
  %67 = getelementptr inbounds nuw i32, ptr %66, i64 %indvars.iv62
  store i32 %65, ptr %67, align 4, !tbaa !39
  %68 = getelementptr inbounds nuw [1024 x i32], ptr @s_FraigPrimes, i64 0, i64 %indvars.iv62
  %69 = load i32, ptr %68, align 4, !tbaa !39
  %70 = mul i32 %69, %65
  %71 = load i32, ptr %61, align 4, !tbaa !42
  %72 = xor i32 %71, %70
  store i32 %72, ptr %61, align 4, !tbaa !42
  %indvars.iv.next63 = add nuw nsw i64 %indvars.iv62, 1
  %73 = load i32, ptr %62, align 8, !tbaa !43
  %74 = sext i32 %73 to i64
  %75 = icmp slt i64 %indvars.iv.next63, %74
  br i1 %75, label %.lr.ph58, label %._crit_edge59, !llvm.loop !44

._crit_edge59:                                    ; preds = %.lr.ph58, %._crit_edge
  call void @llvm.lifetime.start.p0(i64 16, ptr nonnull %2) #7
  %76 = call i32 @clock_gettime(i32 noundef 1, ptr noundef nonnull %2) #7
  %77 = icmp slt i32 %76, 0
  br i1 %77, label %Abc_Clock.exit52, label %78

78:                                               ; preds = %._crit_edge59
  %79 = load i64, ptr %2, align 8, !tbaa !35
  %80 = mul nsw i64 %79, 1000000
  %81 = getelementptr inbounds nuw i8, ptr %2, i64 8
  %82 = load i64, ptr %81, align 8, !tbaa !37
  %83 = sdiv i64 %82, 1000
  %84 = add nsw i64 %83, %80
  br label %Abc_Clock.exit52

Abc_Clock.exit52:                                 ; preds = %._crit_edge59, %78
  %.0.i51 = phi i64 [ %84, %78 ], [ -1, %._crit_edge59 ]
  call void @llvm.lifetime.end.p0(i64 16, ptr nonnull %2) #7
  %85 = add i64 %.0.i51, %.0.i.neg
  %86 = getelementptr inbounds nuw i8, ptr %0, i64 376
  %87 = load i64, ptr %86, align 8, !tbaa !45
  %88 = add nsw i64 %85, %87
  store i64 %88, ptr %86, align 8, !tbaa !45
  %89 = call ptr @Fraig_HashTableLookupF(ptr noundef nonnull %0, ptr noundef nonnull %6) #7
  ret ptr %6
}